; Function Attrs: mustprogress uwtable
define hidden void @_ZN3smt12model_finder9pop_scopeEj(ptr noundef nonnull align 8 dereferenceable(128) %this, i32 noundef %num_scopes) local_unnamed_addr #3 align 2 {
entry:
  %ref.tmp.i.i.i = alloca %"struct.obj_map<quantifier, smt::mf::quantifier_info *>::key_data", align 8
  %m_scopes = getelementptr inbounds i8, ptr %this, i64 104
  %0 = load ptr, ptr %m_scopes, align 8
  %cmp.i = icmp eq ptr %0, null
  br i1 %cmp.i, label %_ZNK6vectorIN3smt12model_finder5scopeELb0EjE4sizeEv.exit, label %if.end.i

if.end.i:                                         ; preds = %entry
  %arrayidx.i = getelementptr inbounds i8, ptr %0, i64 -4
  %1 = load i32, ptr %arrayidx.i, align 4
  br label %_ZNK6vectorIN3smt12model_finder5scopeELb0EjE4sizeEv.exit

_ZNK6vectorIN3smt12model_finder5scopeELb0EjE4sizeEv.exit: ; preds = %entry, %if.end.i
  %retval.0.i = phi i32 [ %1, %if.end.i ], [ 0, %entry ]
  %sub = sub i32 %retval.0.i, %num_scopes
  %idxprom.i = zext i32 %sub to i64
  %arrayidx.i2 = getelementptr inbounds %"struct.smt::model_finder::scope", ptr %0, i64 %idxprom.i
  %2 = load i32, ptr %arrayidx.i2, align 4
  %m_quantifiers.i = getelementptr inbounds i8, ptr %this, i64 64
  %3 = load ptr, ptr %m_quantifiers.i, align 8
  %cmp.i.i = icmp eq ptr %3, null
  br i1 %cmp.i.i, label %_ZN3smt12model_finder19restore_quantifiersEj.exit, label %_ZNK6vectorIP10quantifierLb0EjE4sizeEv.exit.i

_ZNK6vectorIP10quantifierLb0EjE4sizeEv.exit.i:    ; preds = %_ZNK6vectorIN3smt12model_finder5scopeELb0EjE4sizeEv.exit
  %arrayidx.i.i = getelementptr inbounds i8, ptr %3, i64 -4
  %4 = load i32, ptr %arrayidx.i.i, align 4
  %cmp10.i = icmp ugt i32 %4, %2
  br i1 %cmp10.i, label %for.body.lr.ph.i, label %if.then.i.i

for.body.lr.ph.i:                                 ; preds = %_ZNK6vectorIP10quantifierLb0EjE4sizeEv.exit.i
  %m_q2info.i = getelementptr inbounds i8, ptr %this, i64 40
  %m_value.i.i.i.i = getelementptr inbounds i8, ptr %ref.tmp.i.i.i, i64 8
  %5 = zext i32 %2 to i64
  br label %for.body.i

for.body.i:                                       ; preds = %_Z7deallocIN3smt2mf15quantifier_infoEEvPT_.exit.i, %for.body.lr.ph.i
  %indvars.iv.i = phi i64 [ %5, %for.body.lr.ph.i ], [ %indvars.iv.next.i, %_Z7deallocIN3smt2mf15quantifier_infoEEvPT_.exit.i ]
  %6 = load ptr, ptr %m_quantifiers.i, align 8
  %arrayidx.i5.i = getelementptr inbounds ptr, ptr %6, i64 %indvars.iv.i
  %7 = load ptr, ptr %arrayidx.i5.i, align 8
  %call4.i = call noundef ptr @_ZN3smt12model_finder19get_quantifier_infoEP10quantifier(ptr noundef nonnull align 8 dereferenceable(128) %this, ptr noundef %7)
  call void @llvm.lifetime.start.p0(i64 16, ptr nonnull %ref.tmp.i.i.i)
  store ptr %7, ptr %ref.tmp.i.i.i, align 8
  store ptr null, ptr %m_value.i.i.i.i, align 8
  call void @_ZN14core_hashtableIN7obj_mapI10quantifierPN3smt2mf15quantifier_infoEE13obj_map_entryE8obj_hashINS6_8key_dataEE10default_eqIS9_EE6removeERKS9_(ptr noundef nonnull align 8 dereferenceable(20) %m_q2info.i, ptr noundef nonnull align 8 dereferenceable(16) %ref.tmp.i.i.i)
  call void @llvm.lifetime.end.p0(i64 16, ptr nonnull %ref.tmp.i.i.i)
  %cmp.i6.i = icmp eq ptr %call4.i, null
  br i1 %cmp.i6.i, label %_Z7deallocIN3smt2mf15quantifier_infoEEvPT_.exit.i, label %if.end.i7.i

if.end.i7.i:                                      ; preds = %for.body.i
  %vtable.i.i = load ptr, ptr %call4.i, align 8
  %8 = load ptr, ptr %vtable.i.i, align 8
  call void %8(ptr noundef nonnull align 8 dereferenceable(128) %call4.i) #21
  call void @_ZN6memory10deallocateEPv(ptr noundef nonnull %call4.i)
  br label %_Z7deallocIN3smt2mf15quantifier_infoEEvPT_.exit.i

_Z7deallocIN3smt2mf15quantifier_infoEEvPT_.exit.i: ; preds = %if.end.i7.i, %for.body.i
  %indvars.iv.next.i = add nuw nsw i64 %indvars.iv.i, 1
  %lftr.wideiv.i = trunc i64 %indvars.iv.next.i to i32
  %exitcond.not.i = icmp eq i32 %4, %lftr.wideiv.i
  br i1 %exitcond.not.i, label %for.end.i, label %for.body.i, !llvm.loop !8

for.end.i:                                        ; preds = %_Z7deallocIN3smt2mf15quantifier_infoEEvPT_.exit.i
  %.pre.i = load ptr, ptr %m_quantifiers.i, align 8
  %tobool.not.i.i = icmp eq ptr %.pre.i, null
  br i1 %tobool.not.i.i, label %_ZN3smt12model_finder19restore_quantifiersEj.exit, label %if.then.i.i

if.then.i.i:                                      ; preds = %for.end.i, %_ZNK6vectorIP10quantifierLb0EjE4sizeEv.exit.i
  %9 = phi ptr [ %.pre.i, %for.end.i ], [ %3, %_ZNK6vectorIP10quantifierLb0EjE4sizeEv.exit.i ]
  %arrayidx.i8.i = getelementptr inbounds i8, ptr %9, i64 -4
  store i32 %2, ptr %arrayidx.i8.i, align 4
  br label %_ZN3smt12model_finder19restore_quantifiersEj.exit

_ZN3smt12model_finder19restore_quantifiersEj.exit: ; preds = %_ZNK6vectorIN3smt12model_finder5scopeELb0EjE4sizeEv.exit, %for.end.i, %if.then.i.i
  %10 = load ptr, ptr %m_scopes, align 8
  %tobool.not.i = icmp eq ptr %10, null
  br i1 %tobool.not.i, label %_ZN6vectorIN3smt12model_finder5scopeELb0EjE6shrinkEj.exit, label %if.then.i

if.then.i:                                        ; preds = %_ZN3smt12model_finder19restore_quantifiersEj.exit
  %arrayidx.i3 = getelementptr inbounds i8, ptr %10, i64 -4
  store i32 %sub, ptr %arrayidx.i3, align 4
  br label %_ZN6vectorIN3smt12model_finder5scopeELb0EjE6shrinkEj.exit

_ZN6vectorIN3smt12model_finder5scopeELb0EjE6shrinkEj.exit: ; preds = %_ZN3smt12model_finder19restore_quantifiersEj.exit, %if.then.i
  ret void
}